target datalayout = "e-m:e-p270:32:32-p271:32:32-p272:64:64-i64:64-i128:128-f80:128-n8:16:32:64-S128"
target triple = "x86_64-pc-linux-gnu"

%"struct.Luau::CodeGen::IrOp" = type { i32 }

; Function Attrs: mustprogress uwtable
define dso_local void @_ZN4Luau7CodeGen21translateInstJumpIfEqERNS0_9IrBuilderEPKjib(ptr noundef nonnull align 8 dereferenceable(752) %0, ptr noundef %1, i32 noundef %2, i1 noundef zeroext %3) #0 {
  %5 = alloca ptr, align 8
  %6 = alloca ptr, align 8
  %7 = alloca i32, align 4
  %8 = alloca i8, align 1
  %9 = alloca i32, align 4
  %10 = alloca i32, align 4
  %11 = alloca %"struct.Luau::CodeGen::IrOp", align 4
  %12 = alloca %"struct.Luau::CodeGen::IrOp", align 4
  %13 = alloca %"struct.Luau::CodeGen::IrOp", align 4
  %14 = alloca %"struct.Luau::CodeGen::IrOp", align 4
  %15 = alloca %"struct.Luau::CodeGen::IrOp", align 4
  %16 = alloca %"struct.Luau::CodeGen::IrOp", align 4
  %17 = alloca %"struct.Luau::CodeGen::IrOp", align 4
  %18 = alloca %"struct.Luau::CodeGen::IrOp", align 4
  %19 = alloca %"struct.Luau::CodeGen::IrOp", align 4
  %20 = alloca %"struct.Luau::CodeGen::IrOp", align 4
  %21 = alloca %"struct.Luau::CodeGen::IrOp", align 4
  %22 = alloca %"struct.Luau::CodeGen::IrOp", align 4
  %23 = alloca %"struct.Luau::CodeGen::IrOp", align 4
  %24 = alloca %"struct.Luau::CodeGen::IrOp", align 4
  %25 = alloca %"struct.Luau::CodeGen::IrOp", align 4
  %26 = alloca %"struct.Luau::CodeGen::IrOp", align 4
  %27 = alloca %"struct.Luau::CodeGen::IrOp", align 4
  %28 = alloca %"struct.Luau::CodeGen::IrOp", align 4
  %29 = alloca %"struct.Luau::CodeGen::IrOp", align 4
  %30 = alloca %"struct.Luau::CodeGen::IrOp", align 4
  %31 = alloca %"struct.Luau::CodeGen::IrOp", align 4
  %32 = alloca %"struct.Luau::CodeGen::IrOp", align 4
  %33 = alloca %"struct.Luau::CodeGen::IrOp", align 4
  %34 = alloca %"struct.Luau::CodeGen::IrOp", align 4
  %35 = alloca %"struct.Luau::CodeGen::IrOp", align 4
  %36 = alloca %"struct.Luau::CodeGen::IrOp", align 4
  %37 = alloca %"struct.Luau::CodeGen::IrOp", align 4
  %38 = alloca %"struct.Luau::CodeGen::IrOp", align 4
  %39 = alloca %"struct.Luau::CodeGen::IrOp", align 4
  %40 = alloca %"struct.Luau::CodeGen::IrOp", align 4
  %41 = alloca %"struct.Luau::CodeGen::IrOp", align 4
  %42 = alloca %"struct.Luau::CodeGen::IrOp", align 4
  %43 = alloca %"struct.Luau::CodeGen::IrOp", align 4
  %44 = alloca %"struct.Luau::CodeGen::IrOp", align 4
  %45 = alloca %"struct.Luau::CodeGen::IrOp", align 4
  %46 = alloca %"struct.Luau::CodeGen::IrOp", align 4
  %47 = alloca %"struct.Luau::CodeGen::IrOp", align 4
  %48 = alloca %"struct.Luau::CodeGen::IrOp", align 4
  %49 = alloca %"struct.Luau::CodeGen::IrOp", align 4
  %50 = alloca %"struct.Luau::CodeGen::IrOp", align 4
  %51 = alloca %"struct.Luau::CodeGen::IrOp", align 4
  %52 = alloca %"struct.Luau::CodeGen::IrOp", align 4
  store ptr %0, ptr %5, align 8, !tbaa !4
  store ptr %1, ptr %6, align 8, !tbaa !9
  store i32 %2, ptr %7, align 4, !tbaa !11
  %53 = zext i1 %3 to i8
  store i8 %53, ptr %8, align 1, !tbaa !113
  call void @llvm.lifetime.start.p0(i64 4, ptr %9) #13
  %54 = load ptr, ptr %6, align 8, !tbaa !9
  %55 = load i32, ptr %54, align 4, !tbaa !11
  %56 = lshr i32 %55, 8
  %57 = and i32 %56, 255
  store i32 %57, ptr %9, align 4, !tbaa !11
  call void @llvm.lifetime.start.p0(i64 4, ptr %10) #13
  %58 = load ptr, ptr %6, align 8, !tbaa !9
  %59 = getelementptr inbounds i32, ptr %58, i64 1
  %60 = load i32, ptr %59, align 4, !tbaa !11
  store i32 %60, ptr %10, align 4, !tbaa !11
  call void @llvm.lifetime.start.p0(i64 4, ptr %11) #13
  %61 = load ptr, ptr %5, align 8, !tbaa !4
  %62 = load i32, ptr %7, align 4, !tbaa !11
  %63 = add nsw i32 %62, 1
  %64 = load ptr, ptr %6, align 8, !tbaa !9
  %65 = load i32, ptr %64, align 4, !tbaa !11
  %66 = ashr i32 %65, 16
  %67 = add nsw i32 %63, %66
  %68 = call i32 @_ZN4Luau7CodeGen9IrBuilder11blockAtInstEj(ptr noundef nonnull align 8 dereferenceable(752) %61, i32 noundef %67)
  %69 = getelementptr inbounds nuw %"struct.Luau::CodeGen::IrOp", ptr %11, i32 0, i32 0
  store i32 %68, ptr %69, align 4
  call void @llvm.lifetime.start.p0(i64 4, ptr %12) #13
  %70 = load ptr, ptr %5, align 8, !tbaa !4
  %71 = load i32, ptr %7, align 4, !tbaa !11
  %72 = add nsw i32 %71, 2
  %73 = call i32 @_ZN4Luau7CodeGen9IrBuilder11blockAtInstEj(ptr noundef nonnull align 8 dereferenceable(752) %70, i32 noundef %72)
  %74 = getelementptr inbounds nuw %"struct.Luau::CodeGen::IrOp", ptr %12, i32 0, i32 0
  store i32 %73, ptr %74, align 4
  call void @llvm.lifetime.start.p0(i64 4, ptr %13) #13
  %75 = load ptr, ptr %5, align 8, !tbaa !4
  %76 = call i32 @_ZN4Luau7CodeGen9IrBuilder5blockENS0_11IrBlockKindE(ptr noundef nonnull align 8 dereferenceable(752) %75, i8 noundef zeroext 2)
  %77 = getelementptr inbounds nuw %"struct.Luau::CodeGen::IrOp", ptr %13, i32 0, i32 0
  store i32 %76, ptr %77, align 4
  call void @llvm.lifetime.start.p0(i64 4, ptr %14) #13
  %78 = load ptr, ptr %5, align 8, !tbaa !4
  %79 = call i32 @_ZN4Luau7CodeGen9IrBuilder5blockENS0_11IrBlockKindE(ptr noundef nonnull align 8 dereferenceable(752) %78, i8 noundef zeroext 1)
  %80 = getelementptr inbounds nuw %"struct.Luau::CodeGen::IrOp", ptr %14, i32 0, i32 0
  store i32 %79, ptr %80, align 4
  call void @llvm.lifetime.start.p0(i64 4, ptr %15) #13
  %81 = load ptr, ptr %5, align 8, !tbaa !4
  %82 = load ptr, ptr %5, align 8, !tbaa !4
  %83 = load i32, ptr %9, align 4, !tbaa !11
  %84 = trunc i32 %83 to i8
  %85 = call i32 @_ZN4Luau7CodeGen9IrBuilder5vmRegEh(ptr noundef nonnull align 8 dereferenceable(752) %82, i8 noundef zeroext %84)
  %86 = getelementptr inbounds nuw %"struct.Luau::CodeGen::IrOp", ptr %16, i32 0, i32 0
  store i32 %85, ptr %86, align 4
  %87 = getelementptr inbounds nuw %"struct.Luau::CodeGen::IrOp", ptr %16, i32 0, i32 0
  %88 = load i32, ptr %87, align 4
  %89 = call i32 @_ZN4Luau7CodeGen9IrBuilder4instENS0_5IrCmdENS0_4IrOpE(ptr noundef nonnull align 8 dereferenceable(752) %81, i8 noundef zeroext 1, i32 %88)
  %90 = getelementptr inbounds nuw %"struct.Luau::CodeGen::IrOp", ptr %15, i32 0, i32 0
  store i32 %89, ptr %90, align 4
  call void @llvm.lifetime.start.p0(i64 4, ptr %17) #13
  %91 = load ptr, ptr %5, align 8, !tbaa !4
  %92 = load ptr, ptr %5, align 8, !tbaa !4
  %93 = load i32, ptr %10, align 4, !tbaa !11
  %94 = trunc i32 %93 to i8
  %95 = call i32 @_ZN4Luau7CodeGen9IrBuilder5vmRegEh(ptr noundef nonnull align 8 dereferenceable(752) %92, i8 noundef zeroext %94)
  %96 = getelementptr inbounds nuw %"struct.Luau::CodeGen::IrOp", ptr %18, i32 0, i32 0
  store i32 %95, ptr %96, align 4
  %97 = getelementptr inbounds nuw %"struct.Luau::CodeGen::IrOp", ptr %18, i32 0, i32 0
  %98 = load i32, ptr %97, align 4
  %99 = call i32 @_ZN4Luau7CodeGen9IrBuilder4instENS0_5IrCmdENS0_4IrOpE(ptr noundef nonnull align 8 dereferenceable(752) %91, i8 noundef zeroext 1, i32 %98)
  %100 = getelementptr inbounds nuw %"struct.Luau::CodeGen::IrOp", ptr %17, i32 0, i32 0
  store i32 %99, ptr %100, align 4
  %101 = load ptr, ptr %5, align 8, !tbaa !4
  call void @llvm.memcpy.p0.p0.i64(ptr align 4 %19, ptr align 4 %15, i64 4, i1 false), !tbaa.struct !112
  call void @llvm.memcpy.p0.p0.i64(ptr align 4 %20, ptr align 4 %17, i64 4, i1 false), !tbaa.struct !112
  call void @llvm.memcpy.p0.p0.i64(ptr align 4 %21, ptr align 4 %13, i64 4, i1 false), !tbaa.struct !112
  %102 = load i8, ptr %8, align 1, !tbaa !113, !range !114, !noundef !115
  %103 = trunc i8 %102 to i1
  br i1 %103, label %104, label %105

104:                                              ; preds = %4
  br label %106

105:                                              ; preds = %4
  br label %106

106:                                              ; preds = %105, %104
  %107 = phi ptr [ %11, %104 ], [ %12, %105 ]
  call void @llvm.memcpy.p0.p0.i64(ptr align 4 %22, ptr align 4 %107, i64 4, i1 false), !tbaa.struct !112
  %108 = getelementptr inbounds nuw %"struct.Luau::CodeGen::IrOp", ptr %19, i32 0, i32 0
  %109 = load i32, ptr %108, align 4
  %110 = getelementptr inbounds nuw %"struct.Luau::CodeGen::IrOp", ptr %20, i32 0, i32 0
  %111 = load i32, ptr %110, align 4
  %112 = getelementptr inbounds nuw %"struct.Luau::CodeGen::IrOp", ptr %21, i32 0, i32 0
  %113 = load i32, ptr %112, align 4
  %114 = getelementptr inbounds nuw %"struct.Luau::CodeGen::IrOp", ptr %22, i32 0, i32 0
  %115 = load i32, ptr %114, align 4
  %116 = call i32 @_ZN4Luau7CodeGen9IrBuilder4instENS0_5IrCmdENS0_4IrOpES3_S3_S3_(ptr noundef nonnull align 8 dereferenceable(752) %101, i8 noundef zeroext 49, i32 %109, i32 %111, i32 %113, i32 %115)
  %117 = getelementptr inbounds nuw %"struct.Luau::CodeGen::IrOp", ptr %23, i32 0, i32 0
  store i32 %116, ptr %117, align 4
  %118 = load ptr, ptr %5, align 8, !tbaa !4
  call void @llvm.memcpy.p0.p0.i64(ptr align 4 %24, ptr align 4 %13, i64 4, i1 false), !tbaa.struct !112
  %119 = getelementptr inbounds nuw %"struct.Luau::CodeGen::IrOp", ptr %24, i32 0, i32 0
  %120 = load i32, ptr %119, align 4
  call void @_ZN4Luau7CodeGen9IrBuilder10beginBlockENS0_4IrOpE(ptr noundef nonnull align 8 dereferenceable(752) %118, i32 %120)
  %121 = load ptr, ptr %5, align 8, !tbaa !4
  call void @llvm.memcpy.p0.p0.i64(ptr align 4 %25, ptr align 4 %15, i64 4, i1 false), !tbaa.struct !112
  %122 = load ptr, ptr %5, align 8, !tbaa !4
  %123 = call i32 @_ZN4Luau7CodeGen9IrBuilder8constTagEh(ptr noundef nonnull align 8 dereferenceable(752) %122, i8 noundef zeroext 3)
  %124 = getelementptr inbounds nuw %"struct.Luau::CodeGen::IrOp", ptr %26, i32 0, i32 0
  store i32 %123, ptr %124, align 4
  call void @llvm.memcpy.p0.p0.i64(ptr align 4 %27, ptr align 4 %14, i64 4, i1 false), !tbaa.struct !112
  %125 = getelementptr inbounds nuw %"struct.Luau::CodeGen::IrOp", ptr %25, i32 0, i32 0
  %126 = load i32, ptr %125, align 4
  %127 = getelementptr inbounds nuw %"struct.Luau::CodeGen::IrOp", ptr %26, i32 0, i32 0
  %128 = load i32, ptr %127, align 4
  %129 = getelementptr inbounds nuw %"struct.Luau::CodeGen::IrOp", ptr %27, i32 0, i32 0
  %130 = load i32, ptr %129, align 4
  %131 = call i32 @_ZN4Luau7CodeGen9IrBuilder4instENS0_5IrCmdENS0_4IrOpES3_S3_(ptr noundef nonnull align 8 dereferenceable(752) %121, i8 noundef zeroext 82, i32 %126, i32 %128, i32 %130)
  %132 = getelementptr inbounds nuw %"struct.Luau::CodeGen::IrOp", ptr %28, i32 0, i32 0
  store i32 %131, ptr %132, align 4
  call void @llvm.lifetime.start.p0(i64 4, ptr %29) #13
  %133 = load ptr, ptr %5, align 8, !tbaa !4
  %134 = load ptr, ptr %5, align 8, !tbaa !4
  %135 = load i32, ptr %9, align 4, !tbaa !11
  %136 = trunc i32 %135 to i8
  %137 = call i32 @_ZN4Luau7CodeGen9IrBuilder5vmRegEh(ptr noundef nonnull align 8 dereferenceable(752) %134, i8 noundef zeroext %136)
  %138 = getelementptr inbounds nuw %"struct.Luau::CodeGen::IrOp", ptr %30, i32 0, i32 0
  store i32 %137, ptr %138, align 4
  %139 = getelementptr inbounds nuw %"struct.Luau::CodeGen::IrOp", ptr %30, i32 0, i32 0
  %140 = load i32, ptr %139, align 4
  %141 = call i32 @_ZN4Luau7CodeGen9IrBuilder4instENS0_5IrCmdENS0_4IrOpE(ptr noundef nonnull align 8 dereferenceable(752) %133, i8 noundef zeroext 3, i32 %140)
  %142 = getelementptr inbounds nuw %"struct.Luau::CodeGen::IrOp", ptr %29, i32 0, i32 0
  store i32 %141, ptr %142, align 4
  call void @llvm.lifetime.start.p0(i64 4, ptr %31) #13
  %143 = load ptr, ptr %5, align 8, !tbaa !4
  %144 = load ptr, ptr %5, align 8, !tbaa !4
  %145 = load i32, ptr %10, align 4, !tbaa !11
  %146 = trunc i32 %145 to i8
  %147 = call i32 @_ZN4Luau7CodeGen9IrBuilder5vmRegEh(ptr noundef nonnull align 8 dereferenceable(752) %144, i8 noundef zeroext %146)
  %148 = getelementptr inbounds nuw %"struct.Luau::CodeGen::IrOp", ptr %32, i32 0, i32 0
  store i32 %147, ptr %148, align 4
  %149 = getelementptr inbounds nuw %"struct.Luau::CodeGen::IrOp", ptr %32, i32 0, i32 0
  %150 = load i32, ptr %149, align 4
  %151 = call i32 @_ZN4Luau7CodeGen9IrBuilder4instENS0_5IrCmdENS0_4IrOpE(ptr noundef nonnull align 8 dereferenceable(752) %143, i8 noundef zeroext 3, i32 %150)
  %152 = getelementptr inbounds nuw %"struct.Luau::CodeGen::IrOp", ptr %31, i32 0, i32 0
  store i32 %151, ptr %152, align 4
  %153 = load ptr, ptr %5, align 8, !tbaa !4
  call void @llvm.memcpy.p0.p0.i64(ptr align 4 %33, ptr align 4 %29, i64 4, i1 false), !tbaa.struct !112
  call void @llvm.memcpy.p0.p0.i64(ptr align 4 %34, ptr align 4 %31, i64 4, i1 false), !tbaa.struct !112
  %154 = load ptr, ptr %5, align 8, !tbaa !4
  %155 = call i32 @_ZN4Luau7CodeGen9IrBuilder4condENS0_11IrConditionE(ptr noundef nonnull align 8 dereferenceable(752) %154, i8 noundef zeroext 1)
  %156 = getelementptr inbounds nuw %"struct.Luau::CodeGen::IrOp", ptr %35, i32 0, i32 0
  store i32 %155, ptr %156, align 4
  %157 = load i8, ptr %8, align 1, !tbaa !113, !range !114, !noundef !115
  %158 = trunc i8 %157 to i1
  br i1 %158, label %159, label %160

159:                                              ; preds = %106
  br label %161

160:                                              ; preds = %106
  br label %161

161:                                              ; preds = %160, %159
  %162 = phi ptr [ %11, %159 ], [ %12, %160 ]
  call void @llvm.memcpy.p0.p0.i64(ptr align 4 %36, ptr align 4 %162, i64 4, i1 false), !tbaa.struct !112
  %163 = load i8, ptr %8, align 1, !tbaa !113, !range !114, !noundef !115
  %164 = trunc i8 %163 to i1
  br i1 %164, label %165, label %166

165:                                              ; preds = %161
  br label %167

166:                                              ; preds = %161
  br label %167

167:                                              ; preds = %166, %165
  %168 = phi ptr [ %12, %165 ], [ %11, %166 ]
  call void @llvm.memcpy.p0.p0.i64(ptr align 4 %37, ptr align 4 %168, i64 4, i1 false), !tbaa.struct !112
  %169 = getelementptr inbounds nuw %"struct.Luau::CodeGen::IrOp", ptr %33, i32 0, i32 0
  %170 = load i32, ptr %169, align 4
  %171 = getelementptr inbounds nuw %"struct.Luau::CodeGen::IrOp", ptr %34, i32 0, i32 0
  %172 = load i32, ptr %171, align 4
  %173 = getelementptr inbounds nuw %"struct.Luau::CodeGen::IrOp", ptr %35, i32 0, i32 0
  %174 = load i32, ptr %173, align 4
  %175 = getelementptr inbounds nuw %"struct.Luau::CodeGen::IrOp", ptr %36, i32 0, i32 0
  %176 = load i32, ptr %175, align 4
  %177 = getelementptr inbounds nuw %"struct.Luau::CodeGen::IrOp", ptr %37, i32 0, i32 0
  %178 = load i32, ptr %177, align 4
  %179 = call i32 @_ZN4Luau7CodeGen9IrBuilder4instENS0_5IrCmdENS0_4IrOpES3_S3_S3_S3_(ptr noundef nonnull align 8 dereferenceable(752) %153, i8 noundef zeroext 52, i32 %170, i32 %172, i32 %174, i32 %176, i32 %178)
  %180 = getelementptr inbounds nuw %"struct.Luau::CodeGen::IrOp", ptr %38, i32 0, i32 0
  store i32 %179, ptr %180, align 4
  %181 = load ptr, ptr %5, align 8, !tbaa !4
  call void @llvm.memcpy.p0.p0.i64(ptr align 4 %39, ptr align 4 %14, i64 4, i1 false), !tbaa.struct !112
  %182 = getelementptr inbounds nuw %"struct.Luau::CodeGen::IrOp", ptr %39, i32 0, i32 0
  %183 = load i32, ptr %182, align 4
  call void @_ZN4Luau7CodeGen9IrBuilder10beginBlockENS0_4IrOpE(ptr noundef nonnull align 8 dereferenceable(752) %181, i32 %183)
  %184 = load ptr, ptr %5, align 8, !tbaa !4
  %185 = load ptr, ptr %5, align 8, !tbaa !4
  %186 = load i32, ptr %7, align 4, !tbaa !11
  %187 = add nsw i32 %186, 1
  %188 = call i32 @_ZN4Luau7CodeGen9IrBuilder9constUintEj(ptr noundef nonnull align 8 dereferenceable(752) %185, i32 noundef %187)
  %189 = getelementptr inbounds nuw %"struct.Luau::CodeGen::IrOp", ptr %40, i32 0, i32 0
  store i32 %188, ptr %189, align 4
  %190 = getelementptr inbounds nuw %"struct.Luau::CodeGen::IrOp", ptr %40, i32 0, i32 0
  %191 = load i32, ptr %190, align 4
  %192 = call i32 @_ZN4Luau7CodeGen9IrBuilder4instENS0_5IrCmdENS0_4IrOpE(ptr noundef nonnull align 8 dereferenceable(752) %184, i8 noundef zeroext 98, i32 %191)
  %193 = getelementptr inbounds nuw %"struct.Luau::CodeGen::IrOp", ptr %41, i32 0, i32 0
  store i32 %192, ptr %193, align 4
  call void @llvm.lifetime.start.p0(i64 4, ptr %42) #13
  %194 = load ptr, ptr %5, align 8, !tbaa !4
  %195 = load ptr, ptr %5, align 8, !tbaa !4
  %196 = load i32, ptr %9, align 4, !tbaa !11
  %197 = trunc i32 %196 to i8
  %198 = call i32 @_ZN4Luau7CodeGen9IrBuilder5vmRegEh(ptr noundef nonnull align 8 dereferenceable(752) %195, i8 noundef zeroext %197)
  %199 = getelementptr inbounds nuw %"struct.Luau::CodeGen::IrOp", ptr %43, i32 0, i32 0
  store i32 %198, ptr %199, align 4
  %200 = load ptr, ptr %5, align 8, !tbaa !4
  %201 = load i32, ptr %10, align 4, !tbaa !11
  %202 = trunc i32 %201 to i8
  %203 = call i32 @_ZN4Luau7CodeGen9IrBuilder5vmRegEh(ptr noundef nonnull align 8 dereferenceable(752) %200, i8 noundef zeroext %202)
  %204 = getelementptr inbounds nuw %"struct.Luau::CodeGen::IrOp", ptr %44, i32 0, i32 0
  store i32 %203, ptr %204, align 4
  %205 = load ptr, ptr %5, align 8, !tbaa !4
  %206 = call i32 @_ZN4Luau7CodeGen9IrBuilder4condENS0_11IrConditionE(ptr noundef nonnull align 8 dereferenceable(752) %205, i8 noundef zeroext 0)
  %207 = getelementptr inbounds nuw %"struct.Luau::CodeGen::IrOp", ptr %45, i32 0, i32 0
  store i32 %206, ptr %207, align 4
  %208 = getelementptr inbounds nuw %"struct.Luau::CodeGen::IrOp", ptr %43, i32 0, i32 0
  %209 = load i32, ptr %208, align 4
  %210 = getelementptr inbounds nuw %"struct.Luau::CodeGen::IrOp", ptr %44, i32 0, i32 0
  %211 = load i32, ptr %210, align 4
  %212 = getelementptr inbounds nuw %"struct.Luau::CodeGen::IrOp", ptr %45, i32 0, i32 0
  %213 = load i32, ptr %212, align 4
  %214 = call i32 @_ZN4Luau7CodeGen9IrBuilder4instENS0_5IrCmdENS0_4IrOpES3_S3_(ptr noundef nonnull align 8 dereferenceable(752) %194, i8 noundef zeroext 45, i32 %209, i32 %211, i32 %213)
  %215 = getelementptr inbounds nuw %"struct.Luau::CodeGen::IrOp", ptr %42, i32 0, i32 0
  store i32 %214, ptr %215, align 4
  %216 = load ptr, ptr %5, align 8, !tbaa !4
  call void @llvm.memcpy.p0.p0.i64(ptr align 4 %46, ptr align 4 %42, i64 4, i1 false), !tbaa.struct !112
  %217 = load ptr, ptr %5, align 8, !tbaa !4
  %218 = call i32 @_ZN4Luau7CodeGen9IrBuilder8constIntEi(ptr noundef nonnull align 8 dereferenceable(752) %217, i32 noundef 0)
  %219 = getelementptr inbounds nuw %"struct.Luau::CodeGen::IrOp", ptr %47, i32 0, i32 0
  store i32 %218, ptr %219, align 4
  %220 = load ptr, ptr %5, align 8, !tbaa !4
  %221 = call i32 @_ZN4Luau7CodeGen9IrBuilder4condENS0_11IrConditionE(ptr noundef nonnull align 8 dereferenceable(752) %220, i8 noundef zeroext 0)
  %222 = getelementptr inbounds nuw %"struct.Luau::CodeGen::IrOp", ptr %48, i32 0, i32 0
  store i32 %221, ptr %222, align 4
  %223 = load i8, ptr %8, align 1, !tbaa !113, !range !114, !noundef !115
  %224 = trunc i8 %223 to i1
  br i1 %224, label %225, label %226

225:                                              ; preds = %167
  br label %227

226:                                              ; preds = %167
  br label %227

227:                                              ; preds = %226, %225
  %228 = phi ptr [ %11, %225 ], [ %12, %226 ]
  call void @llvm.memcpy.p0.p0.i64(ptr align 4 %49, ptr align 4 %228, i64 4, i1 false), !tbaa.struct !112
  %229 = load i8, ptr %8, align 1, !tbaa !113, !range !114, !noundef !115
  %230 = trunc i8 %229 to i1
  br i1 %230, label %231, label %232

231:                                              ; preds = %227
  br label %233

232:                                              ; preds = %227
  br label %233

233:                                              ; preds = %232, %231
  %234 = phi ptr [ %12, %231 ], [ %11, %232 ]
  call void @llvm.memcpy.p0.p0.i64(ptr align 4 %50, ptr align 4 %234, i64 4, i1 false), !tbaa.struct !112
  %235 = getelementptr inbounds nuw %"struct.Luau::CodeGen::IrOp", ptr %46, i32 0, i32 0
  %236 = load i32, ptr %235, align 4
  %237 = getelementptr inbounds nuw %"struct.Luau::CodeGen::IrOp", ptr %47, i32 0, i32 0
  %238 = load i32, ptr %237, align 4
  %239 = getelementptr inbounds nuw %"struct.Luau::CodeGen::IrOp", ptr %48, i32 0, i32 0
  %240 = load i32, ptr %239, align 4
  %241 = getelementptr inbounds nuw %"struct.Luau::CodeGen::IrOp", ptr %49, i32 0, i32 0
  %242 = load i32, ptr %241, align 4
  %243 = getelementptr inbounds nuw %"struct.Luau::CodeGen::IrOp", ptr %50, i32 0, i32 0
  %244 = load i32, ptr %243, align 4
  %245 = call i32 @_ZN4Luau7CodeGen9IrBuilder4instENS0_5IrCmdENS0_4IrOpES3_S3_S3_S3_(ptr noundef nonnull align 8 dereferenceable(752) %216, i8 noundef zeroext 50, i32 %236, i32 %238, i32 %240, i32 %242, i32 %244)
  %246 = getelementptr inbounds nuw %"struct.Luau::CodeGen::IrOp", ptr %51, i32 0, i32 0
  store i32 %245, ptr %246, align 4
  %247 = load ptr, ptr %5, align 8, !tbaa !4
  call void @llvm.memcpy.p0.p0.i64(ptr align 4 %52, ptr align 4 %12, i64 4, i1 false), !tbaa.struct !112
  %248 = getelementptr inbounds nuw %"struct.Luau::CodeGen::IrOp", ptr %52, i32 0, i32 0
  %249 = load i32, ptr %248, align 4
  call void @_ZN4Luau7CodeGen9IrBuilder10beginBlockENS0_4IrOpE(ptr noundef nonnull align 8 dereferenceable(752) %247, i32 %249)
  call void @llvm.lifetime.end.p0(i64 4, ptr %42) #13
  call void @llvm.lifetime.end.p0(i64 4, ptr %31) #13
  call void @llvm.lifetime.end.p0(i64 4, ptr %29) #13
  call void @llvm.lifetime.end.p0(i64 4, ptr %17) #13
  call void @llvm.lifetime.end.p0(i64 4, ptr %15) #13
  call void @llvm.lifetime.end.p0(i64 4, ptr %14) #13
  call void @llvm.lifetime.end.p0(i64 4, ptr %13) #13
  call void @llvm.lifetime.end.p0(i64 4, ptr %12) #13
  call void @llvm.lifetime.end.p0(i64 4, ptr %11) #13
  call void @llvm.lifetime.end.p0(i64 4, ptr %10) #13
  call void @llvm.lifetime.end.p0(i64 4, ptr %9) #13
  ret void
}