; Function Attrs: mustprogress uwtable
define dso_local void @_ZN4Luau7CodeGen21translateInstJumpIfEqERNS0_9IrBuilderEPKjib(ptr noundef nonnull align 8 dereferenceable(752) %0, ptr noundef readonly captures(none) %1, i32 noundef %2, i1 noundef zeroext %3) local_unnamed_addr #0 {
  %5 = load i32, ptr %1, align 4, !tbaa !4
  %6 = lshr i32 %5, 8
  %7 = getelementptr inbounds nuw i8, ptr %1, i64 4
  %8 = load i32, ptr %7, align 4, !tbaa !4
  %9 = add nsw i32 %2, 1
  %10 = ashr i32 %5, 16
  %11 = add nsw i32 %10, %9
  %12 = tail call i32 @_ZN4Luau7CodeGen9IrBuilder11blockAtInstEj(ptr noundef nonnull align 8 dereferenceable(752) %0, i32 noundef %11)
  %13 = add nsw i32 %2, 2
  %14 = tail call i32 @_ZN4Luau7CodeGen9IrBuilder11blockAtInstEj(ptr noundef nonnull align 8 dereferenceable(752) %0, i32 noundef %13)
  %15 = tail call i32 @_ZN4Luau7CodeGen9IrBuilder5blockENS0_11IrBlockKindE(ptr noundef nonnull align 8 dereferenceable(752) %0, i8 noundef zeroext 2)
  %16 = tail call i32 @_ZN4Luau7CodeGen9IrBuilder5blockENS0_11IrBlockKindE(ptr noundef nonnull align 8 dereferenceable(752) %0, i8 noundef zeroext 1)
  %17 = trunc i32 %6 to i8
  %18 = tail call i32 @_ZN4Luau7CodeGen9IrBuilder5vmRegEh(ptr noundef nonnull align 8 dereferenceable(752) %0, i8 noundef zeroext %17)
  %19 = tail call i32 @_ZN4Luau7CodeGen9IrBuilder4instENS0_5IrCmdENS0_4IrOpE(ptr noundef nonnull align 8 dereferenceable(752) %0, i8 noundef zeroext 1, i32 %18)
  %20 = trunc i32 %8 to i8
  %21 = tail call i32 @_ZN4Luau7CodeGen9IrBuilder5vmRegEh(ptr noundef nonnull align 8 dereferenceable(752) %0, i8 noundef zeroext %20)
  %22 = tail call i32 @_ZN4Luau7CodeGen9IrBuilder4instENS0_5IrCmdENS0_4IrOpE(ptr noundef nonnull align 8 dereferenceable(752) %0, i8 noundef zeroext 1, i32 %21)
  %.sroa.030.0.copyload.sroa.speculated = select i1 %3, i32 %12, i32 %14
  %23 = tail call i32 @_ZN4Luau7CodeGen9IrBuilder4instENS0_5IrCmdENS0_4IrOpES3_S3_S3_(ptr noundef nonnull align 8 dereferenceable(752) %0, i8 noundef zeroext 49, i32 %19, i32 %22, i32 %15, i32 %.sroa.030.0.copyload.sroa.speculated)
  tail call void @_ZN4Luau7CodeGen9IrBuilder10beginBlockENS0_4IrOpE(ptr noundef nonnull align 8 dereferenceable(752) %0, i32 %15)
  %24 = tail call i32 @_ZN4Luau7CodeGen9IrBuilder8constTagEh(ptr noundef nonnull align 8 dereferenceable(752) %0, i8 noundef zeroext 3)
  %25 = tail call i32 @_ZN4Luau7CodeGen9IrBuilder4instENS0_5IrCmdENS0_4IrOpES3_S3_(ptr noundef nonnull align 8 dereferenceable(752) %0, i8 noundef zeroext 82, i32 %19, i32 %24, i32 %16)
  %26 = tail call i32 @_ZN4Luau7CodeGen9IrBuilder5vmRegEh(ptr noundef nonnull align 8 dereferenceable(752) %0, i8 noundef zeroext %17)
  %27 = tail call i32 @_ZN4Luau7CodeGen9IrBuilder4instENS0_5IrCmdENS0_4IrOpE(ptr noundef nonnull align 8 dereferenceable(752) %0, i8 noundef zeroext 3, i32 %26)
  %28 = tail call i32 @_ZN4Luau7CodeGen9IrBuilder5vmRegEh(ptr noundef nonnull align 8 dereferenceable(752) %0, i8 noundef zeroext %20)
  %29 = tail call i32 @_ZN4Luau7CodeGen9IrBuilder4instENS0_5IrCmdENS0_4IrOpE(ptr noundef nonnull align 8 dereferenceable(752) %0, i8 noundef zeroext 3, i32 %28)
  %30 = tail call i32 @_ZN4Luau7CodeGen9IrBuilder4condENS0_11IrConditionE(ptr noundef nonnull align 8 dereferenceable(752) %0, i8 noundef zeroext 1)
  %.sroa.015.0.copyload.sroa.speculated = select i1 %3, i32 %14, i32 %12
  %31 = tail call i32 @_ZN4Luau7CodeGen9IrBuilder4instENS0_5IrCmdENS0_4IrOpES3_S3_S3_S3_(ptr noundef nonnull align 8 dereferenceable(752) %0, i8 noundef zeroext 52, i32 %27, i32 %29, i32 %30, i32 %.sroa.030.0.copyload.sroa.speculated, i32 %.sroa.015.0.copyload.sroa.speculated)
  tail call void @_ZN4Luau7CodeGen9IrBuilder10beginBlockENS0_4IrOpE(ptr noundef nonnull align 8 dereferenceable(752) %0, i32 %16)
  %32 = tail call i32 @_ZN4Luau7CodeGen9IrBuilder9constUintEj(ptr noundef nonnull align 8 dereferenceable(752) %0, i32 noundef %9)
  %33 = tail call i32 @_ZN4Luau7CodeGen9IrBuilder4instENS0_5IrCmdENS0_4IrOpE(ptr noundef nonnull align 8 dereferenceable(752) %0, i8 noundef zeroext 98, i32 %32)
  %34 = tail call i32 @_ZN4Luau7CodeGen9IrBuilder5vmRegEh(ptr noundef nonnull align 8 dereferenceable(752) %0, i8 noundef zeroext %17)
  %35 = tail call i32 @_ZN4Luau7CodeGen9IrBuilder5vmRegEh(ptr noundef nonnull align 8 dereferenceable(752) %0, i8 noundef zeroext %20)
  %36 = tail call i32 @_ZN4Luau7CodeGen9IrBuilder4condENS0_11IrConditionE(ptr noundef nonnull align 8 dereferenceable(752) %0, i8 noundef zeroext 0)
  %37 = tail call i32 @_ZN4Luau7CodeGen9IrBuilder4instENS0_5IrCmdENS0_4IrOpES3_S3_(ptr noundef nonnull align 8 dereferenceable(752) %0, i8 noundef zeroext 45, i32 %34, i32 %35, i32 %36)
  %38 = tail call i32 @_ZN4Luau7CodeGen9IrBuilder8constIntEi(ptr noundef nonnull align 8 dereferenceable(752) %0, i32 noundef 0)
  %39 = tail call i32 @_ZN4Luau7CodeGen9IrBuilder4condENS0_11IrConditionE(ptr noundef nonnull align 8 dereferenceable(752) %0, i8 noundef zeroext 0)
  %40 = tail call i32 @_ZN4Luau7CodeGen9IrBuilder4instENS0_5IrCmdENS0_4IrOpES3_S3_S3_S3_(ptr noundef nonnull align 8 dereferenceable(752) %0, i8 noundef zeroext 50, i32 %37, i32 %38, i32 %39, i32 %.sroa.030.0.copyload.sroa.speculated, i32 %.sroa.015.0.copyload.sroa.speculated)
  tail call void @_ZN4Luau7CodeGen9IrBuilder10beginBlockENS0_4IrOpE(ptr noundef nonnull align 8 dereferenceable(752) %0, i32 %14)
  ret void
}